Certificate:
    Data:
        Version: 3 (0x2)
        Serial Number:
            3e:a6:d8:8c:aa:dd:e9:da:98:c7:72:38:78:03:52:3c
        Signature Algorithm: sha256WithRSAEncryption
        Issuer: CN=Easy-RSA CA
        Validity
            Not Before: Jan  5 18:43:19 2025 GMT
            Not After : Apr 10 18:43:19 2027 GMT
        Subject: CN=client1
        Subject Public Key Info:
            Public Key Algorithm: rsaEncryption
                Public-Key: (2048 bit)
                Modulus:
                    00:e5:8b:47:1b:38:ad:71:42:88:14:02:01:ce:40:
                    b6:8a:7d:c5:f7:35:64:7d:7e:44:e8:c9:b7:b6:76:
                    51:d2:40:a5:93:c4:83:49:4b:5a:9e:71:37:e4:ce:
                    64:0f:f0:26:37:ba:74:00:0d:21:28:0a:e7:2c:cb:
                    58:c0:cb:ff:63:d6:69:07:d5:80:8b:48:ac:9a:c9:
                    d5:4a:24:ab:f4:23:a2:d8:bc:fd:01:fb:14:d5:40:
                    30:ce:ce:36:df:82:c2:2d:ba:89:95:22:93:fc:ba:
                    8a:13:9b:f9:23:44:93:b0:27:b7:d2:e0:1b:58:55:
                    38:fc:e1:7a:33:be:89:d6:7e:c4:95:f3:2e:d0:8c:
                    6c:9a:49:60:10:00:69:c5:32:47:77:9b:8d:cd:50:
                    b5:cf:fa:6f:8f:fe:9b:98:ad:19:c7:47:37:cc:11:
                    6b:53:d3:68:87:a8:b1:01:dc:75:a2:40:5a:90:ff:
                    4a:24:a7:29:ab:fa:ea:ae:d5:9d:ea:23:f9:3a:c3:
                    fc:6b:c4:44:1a:2f:49:b1:6c:7a:8c:7b:46:40:cc:
                    21:0a:18:b5:04:65:4a:e3:04:15:38:62:3d:2e:f8:
                    4b:4e:ea:e3:6e:56:06:29:25:d6:47:cb:97:ad:b4:
                    f0:32:bd:60:61:c7:1b:d5:07:94:8f:28:02:ee:d9:
                    a3:69
                Exponent: 65537 (0x10001)
        X509v3 extensions:
            X509v3 Basic Constraints: 
                CA:FALSE
            X509v3 Subject Key Identifier: 
                B9:33:E7:33:29:A8:AD:2C:B7:06:58:21:3F:9B:7B:1A:DA:72:F7:F0
            X509v3 Authority Key Identifier: 
                keyid:F6:A9:D4:5B:AC:D9:E0:80:DF:D4:3F:EA:7A:D1:07:D5:2E:9A:C0:56
                DirName:/CN=Easy-RSA CA
                serial:4F:C6:9F:4A:6D:65:D3:04:C5:BE:20:18:14:0E:19:B1:01:EB:F3:14
            X509v3 Extended Key Usage: 
                TLS Web Client Authentication
            X509v3 Key Usage: 
                Digital Signature
    Signature Algorithm: sha256WithRSAEncryption
    Signature Value:
        6a:90:dc:da:0a:49:92:d8:e0:a3:40:7c:51:a3:01:bb:7c:92:
        3b:10:d9:a4:a3:b6:ef:86:96:1e:a0:68:39:aa:3d:3b:9c:f5:
        41:cd:ee:25:3f:80:79:8a:c9:43:a4:48:e2:76:12:a0:00:7d:
        df:e8:b4:5b:36:0d:97:e3:f8:ba:bc:47:b8:0b:b4:ad:c4:92:
        e3:f5:9c:da:d7:28:d7:16:c1:3b:d3:2a:e1:70:83:77:1e:5b:
        6d:07:88:ef:04:4d:d8:15:b2:32:6d:39:25:fe:dd:20:94:a0:
        37:ab:82:e4:d9:ab:a7:6d:1b:bc:60:86:95:52:c9:ca:0f:bd:
        a9:ad:87:49:8f:53:0c:74:ae:4f:ea:73:db:ec:98:26:65:ac:
        d3:d1:96:46:74:df:3b:08:83:f2:34:5f:30:34:ea:84:a1:89:
        67:75:99:96:68:bd:9d:fe:a1:48:6a:08:1f:9d:eb:bc:88:ab:
        b3:f2:a1:28:8d:3e:12:19:d0:dc:5a:ff:b6:9f:d8:13:83:ef:
        8b:4d:51:a8:e2:df:0a:7e:a1:3b:2e:1b:5a:d3:70:38:06:0f:
        88:d0:bf:6e:f6:14:67:c8:a8:37:34:47:b2:91:19:2f:ab:67:
        7d:48:99:ee:bd:ef:c5:82:e0:49:52:33:d8:a9:9e:f0:db:5b:
        b4:ff:7f:93
-----BEGIN CERTIFICATE-----
MIIDVTCCAj2gAwIBAgIQPqbYjKrd6dqYx3I4eANSPDANBgkqhkiG9w0BAQsFADAW
MRQwEgYDVQQDDAtFYXN5LVJTQSBDQTAeFw0yNTAxMDUxODQzMTlaFw0yNzA0MTAx
ODQzMTlaMBIxEDAOBgNVBAMMB2NsaWVudDEwggEiMA0GCSqGSIb3DQEBAQUAA4IB
DwAwggEKAoIBAQDli0cbOK1xQogUAgHOQLaKfcX3NWR9fkToybe2dlHSQKWTxINJ
S1qecTfkzmQP8CY3unQADSEoCucsy1jAy/9j1mkH1YCLSKyaydVKJKv0I6LYvP0B
+xTVQDDOzjbfgsItuomVIpP8uooTm/kjRJOwJ7fS4BtYVTj84XozvonWfsSV8y7Q
jGyaSWAQAGnFMkd3m43NULXP+m+P/puYrRnHRzfMEWtT02iHqLEB3HWiQFqQ/0ok
pymr+uqu1Z3qI/k6w/xrxEQaL0mxbHqMe0ZAzCEKGLUEZUrjBBU4Yj0u+EtO6uNu
VgYpJdZHy5ettPAyvWBhxxvVB5SPKALu2aNpAgMBAAGjgaIwgZ8wCQYDVR0TBAIw
ADAdBgNVHQ4EFgQUuTPnMymorSy3BlghP5t7Gtpy9/AwUQYDVR0jBEowSIAU9qnU
W6zZ4IDf1D/qetEH1S6awFahGqQYMBYxFDASBgNVBAMMC0Vhc3ktUlNBIENBghRP
xp9KbWXTBMW+IBgUDhmxAevzFDATBgNVHSUEDDAKBggrBgEFBQcDAjALBgNVHQ8E
BAMCB4AwDQYJKoZIhvcNAQELBQADggEBAGqQ3NoKSZLY4KNAfFGjAbt8kjsQ2aSj
tu+Glh6gaDmqPTuc9UHN7iU/gHmKyUOkSOJ2EqAAfd/otFs2DZfj+Lq8R7gLtK3E
kuP1nNrXKNcWwTvTKuFwg3ceW20HiO8ETdgVsjJtOSX+3SCUoDerguTZq6dtG7xg
hpVSycoPvamth0mPUwx0rk/qc9vsmCZlrNPRlkZ03zsIg/I0XzA06oShiWd1mZZo
vZ3+oUhqCB+d67yIq7PyoSiNPhIZ0Nxa/7af2BOD74tNUaji3wp+oTsuG1rTcDgG
D4jQv272FGfIqDc0R7KRGS+rZ31Ime6978WC4ElSM9ipnvDbW7T/f5M=
-----END CERTIFICATE-----
